; Function Attrs: nounwind uwtable
define i32 @CVodeGetAdjY(ptr noundef %0, double noundef %1, ptr noundef %2) local_unnamed_addr #0 {
  %4 = icmp eq ptr %0, null
  br i1 %4, label %5, label %6

5:                                                ; preds = %3
  tail call void (ptr, i32, ptr, ptr, ptr, ...) @cvProcessError(ptr noundef null, i32 noundef -21, ptr noundef nonnull @.str, ptr noundef nonnull @.str.33, ptr noundef nonnull @.str.2) #8
  br label %12

6:                                                ; preds = %3
  %7 = getelementptr inbounds nuw i8, ptr %0, i64 2192
  %8 = load ptr, ptr %7, align 8, !tbaa !3
  %9 = getelementptr inbounds nuw i8, ptr %8, i64 144
  %10 = load ptr, ptr %9, align 8, !tbaa !35
  %11 = tail call i32 %10(ptr noundef nonnull %0, double noundef %1, ptr noundef %2, ptr noundef null) #8
  br label %12

12:                                               ; preds = %6, %5
  %.0 = phi i32 [ -21, %5 ], [ %11, %6 ]
  ret i32 %.0
}